target datalayout = "e-m:e-p270:32:32-p271:32:32-p272:64:64-i64:64-i128:128-f80:128-n8:16:32:64-S128"
target triple = "x86_64-pc-linux-gnu"

%struct.Cnf_Man_t_ = type { ptr, ptr, ptr, i32, ptr, i32, [4 x ptr], ptr, i64, i64, i64 }
%struct.Cnf_Cut_t_ = type { i8, i8, i16, [2 x ptr], [0 x i32] }
%struct.Aig_Obj_t_ = type { %union.anon, ptr, ptr, i64, i32, i32, %union.anon.0 }
%union.anon = type { ptr }
%union.anon.0 = type { ptr }
%struct.Aig_Man_t_ = type { ptr, ptr, ptr, ptr, ptr, ptr, ptr, %struct.Aig_Obj_t_, i32, i32, i32, i32, i32, i32, [7 x i32], i32, ptr, i32, ptr, i32, ptr, i32, i32, i32, ptr, i32, i32, i32, i32, i32, ptr, ptr, i32, ptr, ptr, i32, ptr, ptr, i32, i32, i32, ptr, ptr, ptr, ptr, ptr, ptr, ptr, ptr, ptr, ptr, ptr, ptr, ptr, ptr, i32, ptr, ptr, ptr, ptr, i32, i64, i64, i64, ptr, ptr }
%struct.Vec_Ptr_t_ = type { i32, i32, ptr }

; Function Attrs: inlinehint nounwind uwtable
define internal ptr @Vec_PtrEntry(ptr noundef %0, i32 noundef %1) #2 {
  %3 = alloca ptr, align 8
  %4 = alloca i32, align 4
  store ptr %0, ptr %3, align 8, !tbaa !66
  store i32 %1, ptr %4, align 4, !tbaa !8
  %5 = load ptr, ptr %3, align 8, !tbaa !66
  %6 = getelementptr inbounds nuw %struct.Vec_Ptr_t_, ptr %5, i32 0, i32 2
  %7 = load ptr, ptr %6, align 8, !tbaa !67
  %8 = load i32, ptr %4, align 4, !tbaa !8
  %9 = sext i32 %8 to i64
  %10 = getelementptr inbounds ptr, ptr %7, i64 %9
  %11 = load ptr, ptr %10, align 8, !tbaa !69
  ret ptr %11
}

; Function Attrs: inlinehint nounwind uwtable
define internal ptr @Aig_ManObj(ptr noundef %0, i32 noundef %1) #2 {
  %3 = alloca ptr, align 8
  %4 = alloca i32, align 4
  store ptr %0, ptr %3, align 8, !tbaa !41
  store i32 %1, ptr %4, align 4, !tbaa !8
  %5 = load ptr, ptr %3, align 8, !tbaa !41
  %6 = getelementptr inbounds nuw %struct.Aig_Man_t_, ptr %5, i32 0, i32 4
  %7 = load ptr, ptr %6, align 8, !tbaa !42
  %8 = icmp ne ptr %7, null
  br i1 %8, label %9, label %15

9:                                                ; preds = %2
  %10 = load ptr, ptr %3, align 8, !tbaa !41
  %11 = getelementptr inbounds nuw %struct.Aig_Man_t_, ptr %10, i32 0, i32 4
  %12 = load ptr, ptr %11, align 8, !tbaa !42
  %13 = load i32, ptr %4, align 4, !tbaa !8
  %14 = call ptr @Vec_PtrEntry(ptr noundef %12, i32 noundef %13)
  br label %16

15:                                               ; preds = %2
  br label %16

16:                                               ; preds = %15, %9
  %17 = phi ptr [ %14, %9 ], [ null, %15 ]
  ret ptr %17
}

; Function Attrs: nounwind uwtable
define void @Cnf_CutRef(ptr noundef %0, ptr noundef %1) #0 {
  %3 = alloca ptr, align 8
  %4 = alloca ptr, align 8
  %5 = alloca ptr, align 8
  %6 = alloca i32, align 4
  store ptr %0, ptr %3, align 8, !tbaa !3
  store ptr %1, ptr %4, align 8, !tbaa !18
  call void @llvm.lifetime.start.p0(i64 8, ptr %5) #7
  call void @llvm.lifetime.start.p0(i64 4, ptr %6) #7
  store i32 0, ptr %6, align 4, !tbaa !8
  br label %7

7:                                                ; preds = %42, %2
  %8 = load i32, ptr %6, align 4, !tbaa !8
  %9 = load ptr, ptr %4, align 8, !tbaa !18
  %10 = getelementptr inbounds nuw %struct.Cnf_Cut_t_, ptr %9, i32 0, i32 0
  %11 = load i8, ptr %10, align 8, !tbaa !20
  %12 = sext i8 %11 to i32
  %13 = icmp slt i32 %8, %12
  br i1 %13, label %14, label %26

14:                                               ; preds = %7
  %15 = load ptr, ptr %3, align 8, !tbaa !3
  %16 = getelementptr inbounds nuw %struct.Cnf_Man_t_, ptr %15, i32 0, i32 0
  %17 = load ptr, ptr %16, align 8, !tbaa !39
  %18 = load ptr, ptr %4, align 8, !tbaa !18
  %19 = getelementptr inbounds nuw %struct.Cnf_Cut_t_, ptr %18, i32 0, i32 4
  %20 = load i32, ptr %6, align 4, !tbaa !8
  %21 = sext i32 %20 to i64
  %22 = getelementptr inbounds [0 x i32], ptr %19, i64 0, i64 %21
  %23 = load i32, ptr %22, align 4, !tbaa !8
  %24 = call ptr @Aig_ManObj(ptr noundef %17, i32 noundef %23)
  store ptr %24, ptr %5, align 8, !tbaa !28
  %25 = icmp ne ptr %24, null
  br label %26

26:                                               ; preds = %14, %7
  %27 = phi i1 [ false, %7 ], [ %25, %14 ]
  br i1 %27, label %28, label %45

28:                                               ; preds = %26
  %29 = load ptr, ptr %5, align 8, !tbaa !28
  %30 = getelementptr inbounds nuw %struct.Aig_Obj_t_, ptr %29, i32 0, i32 3
  %31 = load i64, ptr %30, align 8
  %32 = lshr i64 %31, 6
  %33 = and i64 %32, 67108863
  %34 = trunc i64 %33 to i32
  %35 = add i32 %34, 1
  %36 = zext i32 %35 to i64
  %37 = load i64, ptr %30, align 8
  %38 = and i64 %36, 67108863
  %39 = shl i64 %38, 6
  %40 = and i64 %37, -4294967233
  %41 = or i64 %40, %39
  store i64 %41, ptr %30, align 8
  br label %42

42:                                               ; preds = %28
  %43 = load i32, ptr %6, align 4, !tbaa !8
  %44 = add nsw i32 %43, 1
  store i32 %44, ptr %6, align 4, !tbaa !8
  br label %7, !llvm.loop !50

45:                                               ; preds = %26
  call void @llvm.lifetime.end.p0(i64 4, ptr %6) #7
  call void @llvm.lifetime.end.p0(i64 8, ptr %5) #7
  ret void
}